target datalayout = "e-m:e-p270:32:32-p271:32:32-p272:64:64-i64:64-i128:128-f80:128-n8:16:32:64-S128"
target triple = "x86_64-pc-linux-gnu"

%struct.UEnumeration = type { ptr, ptr, ptr, ptr, ptr, ptr, ptr }
%struct.CurrencyList = type { ptr, i32 }
%struct.UCurrencyContext = type { i32, i32 }

; Function Attrs: mustprogress nounwind uwtable
define internal noundef i32 @_ZL23ucurr_countCurrencyListP12UEnumerationP10UErrorCode(ptr noundef %0, ptr noundef %1) #0 {
  %3 = alloca ptr, align 8
  %4 = alloca ptr, align 8
  %5 = alloca ptr, align 8
  %6 = alloca i32, align 4
  %7 = alloca i32, align 4
  %8 = alloca i32, align 4
  store ptr %0, ptr %3, align 8, !tbaa !123
  store ptr %1, ptr %4, align 8, !tbaa !22
  call void @llvm.lifetime.start.p0(i64 8, ptr %5) #12
  %9 = load ptr, ptr %3, align 8, !tbaa !123
  %10 = getelementptr inbounds nuw %struct.UEnumeration, ptr %9, i32 0, i32 1
  %11 = load ptr, ptr %10, align 8, !tbaa !130
  store ptr %11, ptr %5, align 8, !tbaa !125
  call void @llvm.lifetime.start.p0(i64 4, ptr %6) #12
  %12 = load ptr, ptr %5, align 8, !tbaa !125
  %13 = getelementptr inbounds nuw %struct.UCurrencyContext, ptr %12, i32 0, i32 0
  %14 = load i32, ptr %13, align 4, !tbaa !127
  store i32 %14, ptr %6, align 4, !tbaa !14
  call void @llvm.lifetime.start.p0(i64 4, ptr %7) #12
  store i32 0, ptr %7, align 4, !tbaa !14
  call void @llvm.lifetime.start.p0(i64 4, ptr %8) #12
  store i32 0, ptr %8, align 4, !tbaa !14
  br label %15

15:                                               ; preds = %40, %2
  %16 = load i32, ptr %8, align 4, !tbaa !14
  %17 = sext i32 %16 to i64
  %18 = getelementptr inbounds [309 x %struct.CurrencyList], ptr @_ZL13gCurrencyList, i64 0, i64 %17
  %19 = getelementptr inbounds nuw %struct.CurrencyList, ptr %18, i32 0, i32 0
  %20 = load ptr, ptr %19, align 16, !tbaa !197
  %21 = icmp ne ptr %20, null
  br i1 %21, label %23, label %22

22:                                               ; preds = %15
  call void @llvm.lifetime.end.p0(i64 4, ptr %8) #12
  br label %43

23:                                               ; preds = %15
  %24 = load i32, ptr %6, align 4, !tbaa !14
  %25 = icmp eq i32 %24, 2147483647
  br i1 %25, label %36, label %26

26:                                               ; preds = %23
  %27 = load i32, ptr %8, align 4, !tbaa !14
  %28 = sext i32 %27 to i64
  %29 = getelementptr inbounds [309 x %struct.CurrencyList], ptr @_ZL13gCurrencyList, i64 0, i64 %28
  %30 = getelementptr inbounds nuw %struct.CurrencyList, ptr %29, i32 0, i32 1
  %31 = load i32, ptr %30, align 8, !tbaa !199
  %32 = load i32, ptr %6, align 4, !tbaa !14
  %33 = and i32 %31, %32
  %34 = load i32, ptr %6, align 4, !tbaa !14
  %35 = icmp eq i32 %33, %34
  br i1 %35, label %36, label %39

36:                                               ; preds = %26, %23
  %37 = load i32, ptr %7, align 4, !tbaa !14
  %38 = add nsw i32 %37, 1
  store i32 %38, ptr %7, align 4, !tbaa !14
  br label %39

39:                                               ; preds = %36, %26
  br label %40

40:                                               ; preds = %39
  %41 = load i32, ptr %8, align 4, !tbaa !14
  %42 = add nsw i32 %41, 1
  store i32 %42, ptr %8, align 4, !tbaa !14
  br label %15, !llvm.loop !200

43:                                               ; preds = %22
  %44 = load i32, ptr %7, align 4, !tbaa !14
  call void @llvm.lifetime.end.p0(i64 4, ptr %7) #12
  call void @llvm.lifetime.end.p0(i64 4, ptr %6) #12
  call void @llvm.lifetime.end.p0(i64 8, ptr %5) #12
  ret i32 %44
}