; Function Attrs: mustprogress nofree norecurse nosync nounwind willreturn memory(read, inaccessiblemem: none) uwtable
define internal noundef i32 @_ZL23ucurr_countCurrencyListP12UEnumerationP10UErrorCode(ptr noundef readonly captures(none) %0, ptr readnone captures(none) %1) #15 {
  %3 = getelementptr inbounds nuw i8, ptr %0, i64 8
  %4 = load ptr, ptr %3, align 8, !tbaa !101
  %5 = load i32, ptr %4, align 4, !tbaa !98
  %6 = icmp eq i32 %5, 2147483647
  br i1 %6, label %.split.us, label %.split

.split.us:                                        ; preds = %2, %.split.us
  %indvars.iv17 = phi i64 [ %indvars.iv.next18, %.split.us ], [ 0, %2 ]
  %indvars.iv.next18 = add nuw nsw i64 %indvars.iv17, 1
  %7 = getelementptr inbounds nuw [309 x %struct.CurrencyList], ptr @_ZL13gCurrencyList, i64 0, i64 %indvars.iv.next18
  %8 = load ptr, ptr %7, align 16, !tbaa !119
  %.not.us = icmp eq ptr %8, null
  br i1 %.not.us, label %.split14.us.loopexit, label %.split.us, !llvm.loop !121

.split14.us.loopexit:                             ; preds = %.split.us
  %indvars20 = trunc i64 %indvars.iv.next18 to i32
  br label %.split14.us

.split14.us:                                      ; preds = %.split, %.split14.us.loopexit
  %.us-phi = phi i32 [ %indvars20, %.split14.us.loopexit ], [ %spec.select, %.split ]
  ret i32 %.us-phi

.split:                                           ; preds = %2, %.split
  %indvars.iv = phi i64 [ %indvars.iv.next, %.split ], [ 0, %2 ]
  %9 = phi ptr [ %15, %.split ], [ @_ZL13gCurrencyList, %2 ]
  %.0911 = phi i32 [ %spec.select, %.split ], [ 0, %2 ]
  %10 = getelementptr inbounds nuw i8, ptr %9, i64 8
  %11 = load i32, ptr %10, align 8, !tbaa !122
  %12 = and i32 %11, %5
  %13 = icmp eq i32 %12, %5
  %14 = zext i1 %13 to i32
  %spec.select = add nuw nsw i32 %.0911, %14
  %indvars.iv.next = add nuw nsw i64 %indvars.iv, 1
  %15 = getelementptr inbounds nuw [309 x %struct.CurrencyList], ptr @_ZL13gCurrencyList, i64 0, i64 %indvars.iv.next
  %16 = load ptr, ptr %15, align 16, !tbaa !119
  %.not = icmp eq ptr %16, null
  br i1 %.not, label %.split14.us, label %.split, !llvm.loop !121
}